; Function Attrs: mustprogress uwtable
define internal void @_ZL41tsi_ssl_client_handshaker_factory_destroyP26tsi_ssl_handshaker_factory(ptr noundef %0) #3 personality ptr @__gxx_personality_v0 {
  %2 = icmp eq ptr %0, null
  br i1 %2, label %32, label %3

3:                                                ; preds = %1
  %4 = getelementptr inbounds nuw i8, ptr %0, i64 16
  %5 = load ptr, ptr %4, align 8, !tbaa !43
  %.not = icmp eq ptr %5, null
  br i1 %.not, label %7, label %6

6:                                                ; preds = %3
  tail call void @SSL_CTX_free(ptr noundef nonnull %5)
  br label %7

7:                                                ; preds = %6, %3
  %8 = getelementptr inbounds nuw i8, ptr %0, i64 24
  %9 = load ptr, ptr %8, align 8, !tbaa !122
  %.not11 = icmp eq ptr %9, null
  br i1 %.not11, label %11, label %10

10:                                               ; preds = %7
  tail call void @gpr_free(ptr noundef nonnull %9)
  br label %11

11:                                               ; preds = %10, %7
  %12 = getelementptr inbounds nuw i8, ptr %0, i64 40
  %13 = load ptr, ptr %12, align 8, !tbaa !115
  store ptr null, ptr %12, align 8, !tbaa !115
  %.not.i = icmp eq ptr %13, null
  br i1 %.not.i, label %_ZN9grpc_core13RefCountedPtrIN3tsi18SslSessionLRUCacheEE5resetEPS2_.exit, label %14

14:                                               ; preds = %11
  %15 = getelementptr inbounds nuw i8, ptr %13, i64 8
  %16 = atomicrmw sub ptr %15, i64 1 acq_rel, align 8
  %17 = icmp eq i64 %16, 1
  br i1 %17, label %18, label %_ZN9grpc_core13RefCountedPtrIN3tsi18SslSessionLRUCacheEE5resetEPS2_.exit, !prof !28

18:                                               ; preds = %14
  %19 = load ptr, ptr %13, align 8, !tbaa !40
  %20 = getelementptr inbounds nuw i8, ptr %19, i64 8
  %21 = load ptr, ptr %20, align 8
  tail call void %21(ptr noundef nonnull align 8 dereferenceable(104) %13) #32
  br label %_ZN9grpc_core13RefCountedPtrIN3tsi18SslSessionLRUCacheEE5resetEPS2_.exit

_ZN9grpc_core13RefCountedPtrIN3tsi18SslSessionLRUCacheEE5resetEPS2_.exit: ; preds = %11, %14, %18
  %22 = getelementptr inbounds nuw i8, ptr %0, i64 48
  %23 = load ptr, ptr %22, align 8, !tbaa !120
  store ptr null, ptr %22, align 8, !tbaa !120
  %.not.i12 = icmp eq ptr %23, null
  br i1 %.not.i12, label %_ZN9grpc_core13RefCountedPtrIN3tsi24TlsSessionKeyLoggerCache19TlsSessionKeyLoggerEE5resetEPS3_.exit, label %24

24:                                               ; preds = %_ZN9grpc_core13RefCountedPtrIN3tsi18SslSessionLRUCacheEE5resetEPS2_.exit
  %25 = getelementptr inbounds nuw i8, ptr %23, i64 8
  %26 = atomicrmw sub ptr %25, i64 1 acq_rel, align 8
  %27 = icmp eq i64 %26, 1
  br i1 %27, label %28, label %_ZN9grpc_core13RefCountedPtrIN3tsi24TlsSessionKeyLoggerCache19TlsSessionKeyLoggerEE5resetEPS3_.exit, !prof !28

28:                                               ; preds = %24
  %29 = load ptr, ptr %23, align 8, !tbaa !40
  %30 = getelementptr inbounds nuw i8, ptr %29, i64 8
  %31 = load ptr, ptr %30, align 8
  tail call void %31(ptr noundef nonnull align 8 dereferenceable(72) %23) #32
  br label %_ZN9grpc_core13RefCountedPtrIN3tsi24TlsSessionKeyLoggerCache19TlsSessionKeyLoggerEE5resetEPS3_.exit

_ZN9grpc_core13RefCountedPtrIN3tsi24TlsSessionKeyLoggerCache19TlsSessionKeyLoggerEE5resetEPS3_.exit: ; preds = %_ZN9grpc_core13RefCountedPtrIN3tsi18SslSessionLRUCacheEE5resetEPS2_.exit, %24, %28
  tail call void @gpr_free(ptr noundef nonnull %0)
  br label %32

32:                                               ; preds = %1, %_ZN9grpc_core13RefCountedPtrIN3tsi24TlsSessionKeyLoggerCache19TlsSessionKeyLoggerEE5resetEPS3_.exit
  ret void
}